; Function Attrs: nounwind uwtable
define internal fastcc ptr @next_protos_parse(ptr noundef nonnull writeonly captures(none) %0, ptr noundef readonly captures(none) %1) unnamed_addr #7 {
  %3 = tail call i64 @strlen(ptr noundef nonnull dereferenceable(1) %1) #25
  %4 = icmp ugt i64 %3, 65534
  br i1 %4, label %25, label %5

5:                                                ; preds = %2
  %6 = add nuw nsw i64 %3, 1
  %7 = tail call noalias ptr @CRYPTO_malloc(i64 noundef %6, ptr noundef nonnull @.str.104, i32 noundef 267) #23
  %.not = icmp eq ptr %7, null
  br i1 %.not, label %25, label %.preheader

.preheader:                                       ; preds = %5
  %invariant.gep = getelementptr inbounds nuw i8, ptr %7, i64 1
  br label %8

8:                                                ; preds = %.preheader, %23
  %.033 = phi i64 [ 0, %.preheader ], [ %.1, %23 ]
  %.02632 = phi i64 [ 0, %.preheader ], [ %.pre-phi, %23 ]
  %9 = icmp eq i64 %.02632, %3
  br i1 %9, label %14, label %10

10:                                               ; preds = %8
  %11 = getelementptr inbounds nuw i8, ptr %1, i64 %.02632
  %12 = load i8, ptr %11, align 1, !tbaa !23
  %13 = icmp eq i8 %12, 44
  br i1 %13, label %14, label %22

14:                                               ; preds = %10, %8
  %15 = sub i64 %.02632, %.033
  %16 = icmp ugt i64 %15, 255
  br i1 %16, label %17, label %18

17:                                               ; preds = %14
  tail call void @CRYPTO_free(ptr noundef nonnull %7, ptr noundef nonnull @.str.104, i32 noundef 274) #23
  br label %25

18:                                               ; preds = %14
  %19 = trunc nuw i64 %15 to i8
  %20 = getelementptr inbounds nuw i8, ptr %7, i64 %.033
  store i8 %19, ptr %20, align 1, !tbaa !23
  %21 = add nuw i64 %.02632, 1
  br label %23

22:                                               ; preds = %10
  %gep = getelementptr inbounds nuw i8, ptr %invariant.gep, i64 %.02632
  store i8 %12, ptr %gep, align 1, !tbaa !23
  %.pre = add nuw i64 %.02632, 1
  br label %23

23:                                               ; preds = %18, %22
  %.pre-phi = phi i64 [ %21, %18 ], [ %.pre, %22 ]
  %.1 = phi i64 [ %21, %18 ], [ %.033, %22 ]
  %exitcond.not = icmp eq i64 %.pre-phi, %6
  br i1 %exitcond.not, label %24, label %8, !llvm.loop !36

24:                                               ; preds = %23
  store i64 %6, ptr %0, align 8, !tbaa !11
  br label %25

25:                                               ; preds = %5, %2, %24, %17
  %.027 = phi ptr [ null, %17 ], [ %7, %24 ], [ null, %2 ], [ null, %5 ]
  ret ptr %.027
}